; ModuleID = '1159.c'
source_filename = "1159.c"
target datalayout = "e-m:e-p270:32:32-p271:32:32-p272:64:64-i64:64-f80:128-n8:16:32:64-S128"
target triple = "x86_64-pc-linux-gnu"

@.str = private unnamed_addr constant [3 x i8] c"%c\00", align 1
@.str.1 = private unnamed_addr constant [4 x i8] c"%c\0A\00", align 1

; Function Attrs: noinline nounwind uwtable
define dso_local i32 @main() #0 {
  %1 = alloca i32, align 4
  %2 = alloca [100 x i8], align 16
  %3 = alloca i32, align 4
  %4 = alloca i32, align 4
  %5 = alloca i32, align 4
  %6 = alloca i32, align 4
  %7 = alloca i32, align 4
  %8 = alloca i32, align 4
  %9 = alloca i32, align 4
  %10 = alloca i32, align 4
  %11 = alloca i32, align 4
  %12 = alloca [100 x i32], align 16
  store i32 0, i32* %1, align 4
  %13 = getelementptr inbounds [100 x i8], [100 x i8]* %2, i64 0, i64 0
  %14 = call i32 (i8*, ...) bitcast (i32 (...)* @gets to i32 (i8*, ...)*)(i8* %13)
  %15 = getelementptr inbounds [100 x i8], [100 x i8]* %2, i64 0, i64 0
  %16 = call i64 @strlen(i8* %15) #3
  %17 = trunc i64 %16 to i32
  store i32 %17, i32* %6, align 4
  %18 = getelementptr inbounds [100 x i32], [100 x i32]* %12, i64 0, i64 0
  store i32 -1, i32* %18, align 16
  store i32 1, i32* %4, align 4
  store i32 0, i32* %3, align 4
  br label %19

19:                                               ; preds = %38, %0
  %20 = load i32, i32* %3, align 4
  %21 = load i32, i32* %6, align 4
  %22 = icmp slt i32 %20, %21
  br i1 %22, label %23, label %41

23:                                               ; preds = %19
  %24 = load i32, i32* %3, align 4
  %25 = sext i32 %24 to i64
  %26 = getelementptr inbounds [100 x i8], [100 x i8]* %2, i64 0, i64 %25
  %27 = load i8, i8* %26, align 1
  %28 = sext i8 %27 to i32
  %29 = icmp eq i32 %28, 32
  br i1 %29, label %30, label %37

30:                                               ; preds = %23
  %31 = load i32, i32* %3, align 4
  %32 = load i32, i32* %4, align 4
  %33 = sext i32 %32 to i64
  %34 = getelementptr inbounds [100 x i32], [100 x i32]* %12, i64 0, i64 %33
  store i32 %31, i32* %34, align 4
  %35 = load i32, i32* %4, align 4
  %36 = add nsw i32 %35, 1
  store i32 %36, i32* %4, align 4
  br label %37

37:                                               ; preds = %30, %23
  br label %38

38:                                               ; preds = %37
  %39 = load i32, i32* %3, align 4
  %40 = add nsw i32 %39, 1
  store i32 %40, i32* %3, align 4
  br label %19

41:                                               ; preds = %19
  %42 = load i32, i32* %3, align 4
  %43 = load i32, i32* %4, align 4
  %44 = sext i32 %43 to i64
  %45 = getelementptr inbounds [100 x i32], [100 x i32]* %12, i64 0, i64 %44
  store i32 %42, i32* %45, align 4
  %46 = getelementptr inbounds [100 x i32], [100 x i32]* %12, i64 0, i64 1
  %47 = load i32, i32* %46, align 4
  %48 = getelementptr inbounds [100 x i32], [100 x i32]* %12, i64 0, i64 0
  %49 = load i32, i32* %48, align 16
  %50 = sub nsw i32 %47, %49
  %51 = sub nsw i32 %50, 1
  store i32 %51, i32* %7, align 4
  store i32 0, i32* %10, align 4
  %52 = getelementptr inbounds [100 x i32], [100 x i32]* %12, i64 0, i64 2
  %53 = load i32, i32* %52, align 8
  %54 = getelementptr inbounds [100 x i32], [100 x i32]* %12, i64 0, i64 1
  %55 = load i32, i32* %54, align 4
  %56 = sub nsw i32 %53, %55
  %57 = sub nsw i32 %56, 1
  store i32 %57, i32* %8, align 4
  store i32 0, i32* %11, align 4
  %58 = load i32, i32* %7, align 4
  %59 = load i32, i32* %8, align 4
  %60 = icmp slt i32 %58, %59
  br i1 %60, label %61, label %65

61:                                               ; preds = %41
  %62 = load i32, i32* %7, align 4
  store i32 %62, i32* %9, align 4
  %63 = load i32, i32* %8, align 4
  store i32 %63, i32* %7, align 4
  %64 = load i32, i32* %9, align 4
  store i32 %64, i32* %8, align 4
  store i32 1, i32* %10, align 4
  store i32 0, i32* %11, align 4
  br label %65

65:                                               ; preds = %61, %41
  store i32 3, i32* %5, align 4
  br label %66

66:                                               ; preds = %99, %65
  %67 = load i32, i32* %5, align 4
  %68 = load i32, i32* %4, align 4
  %69 = icmp sle i32 %67, %68
  br i1 %69, label %70, label %102

70:                                               ; preds = %66
  %71 = load i32, i32* %5, align 4
  %72 = sext i32 %71 to i64
  %73 = getelementptr inbounds [100 x i32], [100 x i32]* %12, i64 0, i64 %72
  %74 = load i32, i32* %73, align 4
  %75 = load i32, i32* %5, align 4
  %76 = sub nsw i32 %75, 1
  %77 = sext i32 %76 to i64
  %78 = getelementptr inbounds [100 x i32], [100 x i32]* %12, i64 0, i64 %77
  %79 = load i32, i32* %78, align 4
  %80 = sub nsw i32 %74, %79
  %81 = sub nsw i32 %80, 1
  store i32 %81, i32* %9, align 4
  %82 = load i32, i32* %9, align 4
  %83 = load i32, i32* %7, align 4
  %84 = icmp sgt i32 %82, %83
  br i1 %84, label %85, label %89

85:                                               ; preds = %70
  %86 = load i32, i32* %9, align 4
  store i32 %86, i32* %7, align 4
  %87 = load i32, i32* %5, align 4
  %88 = sub nsw i32 %87, 1
  store i32 %88, i32* %10, align 4
  br label %98

89:                                               ; preds = %70
  %90 = load i32, i32* %9, align 4
  %91 = load i32, i32* %8, align 4
  %92 = icmp slt i32 %90, %91
  br i1 %92, label %93, label %97

93:                                               ; preds = %89
  %94 = load i32, i32* %9, align 4
  store i32 %94, i32* %8, align 4
  %95 = load i32, i32* %5, align 4
  %96 = sub nsw i32 %95, 1
  store i32 %96, i32* %11, align 4
  br label %97

97:                                               ; preds = %93, %89
  br label %98

98:                                               ; preds = %97, %85
  br label %99

99:                                               ; preds = %98
  %100 = load i32, i32* %5, align 4
  %101 = add nsw i32 %100, 1
  store i32 %101, i32* %5, align 4
  br label %66

102:                                              ; preds = %66
  %103 = load i32, i32* %10, align 4
  %104 = sext i32 %103 to i64
  %105 = getelementptr inbounds [100 x i32], [100 x i32]* %12, i64 0, i64 %104
  %106 = load i32, i32* %105, align 4
  %107 = add nsw i32 %106, 1
  store i32 %107, i32* %3, align 4
  br label %108

108:                                              ; preds = %124, %102
  %109 = load i32, i32* %3, align 4
  %110 = load i32, i32* %10, align 4
  %111 = add nsw i32 %110, 1
  %112 = sext i32 %111 to i64
  %113 = getelementptr inbounds [100 x i32], [100 x i32]* %12, i64 0, i64 %112
  %114 = load i32, i32* %113, align 4
  %115 = sub nsw i32 %114, 1
  %116 = icmp slt i32 %109, %115
  br i1 %116, label %117, label %127

117:                                              ; preds = %108
  %118 = load i32, i32* %3, align 4
  %119 = sext i32 %118 to i64
  %120 = getelementptr inbounds [100 x i8], [100 x i8]* %2, i64 0, i64 %119
  %121 = load i8, i8* %120, align 1
  %122 = sext i8 %121 to i32
  %123 = call i32 (i8*, ...) @printf(i8* getelementptr inbounds ([3 x i8], [3 x i8]* @.str, i64 0, i64 0), i32 %122)
  br label %124

124:                                              ; preds = %117
  %125 = load i32, i32* %3, align 4
  %126 = add nsw i32 %125, 1
  store i32 %126, i32* %3, align 4
  br label %108

127:                                              ; preds = %108
  %128 = load i32, i32* %3, align 4
  %129 = sext i32 %128 to i64
  %130 = getelementptr inbounds [100 x i8], [100 x i8]* %2, i64 0, i64 %129
  %131 = load i8, i8* %130, align 1
  %132 = sext i8 %131 to i32
  %133 = call i32 (i8*, ...) @printf(i8* getelementptr inbounds ([4 x i8], [4 x i8]* @.str.1, i64 0, i64 0), i32 %132)
  %134 = load i32, i32* %11, align 4
  %135 = sext i32 %134 to i64
  %136 = getelementptr inbounds [100 x i32], [100 x i32]* %12, i64 0, i64 %135
  %137 = load i32, i32* %136, align 4
  %138 = add nsw i32 %137, 1
  store i32 %138, i32* %4, align 4
  br label %139

139:                                              ; preds = %155, %127
  %140 = load i32, i32* %4, align 4
  %141 = load i32, i32* %11, align 4
  %142 = add nsw i32 %141, 1
  %143 = sext i32 %142 to i64
  %144 = getelementptr inbounds [100 x i32], [100 x i32]* %12, i64 0, i64 %143
  %145 = load i32, i32* %144, align 4
  %146 = sub nsw i32 %145, 1
  %147 = icmp sle i32 %140, %146
  br i1 %147, label %148, label %158

148:                                              ; preds = %139
  %149 = load i32, i32* %4, align 4
  %150 = sext i32 %149 to i64
  %151 = getelementptr inbounds [100 x i8], [100 x i8]* %2, i64 0, i64 %150
  %152 = load i8, i8* %151, align 1
  %153 = sext i8 %152 to i32
  %154 = call i32 (i8*, ...) @printf(i8* getelementptr inbounds ([3 x i8], [3 x i8]* @.str, i64 0, i64 0), i32 %153)
  br label %155

155:                                              ; preds = %148
  %156 = load i32, i32* %4, align 4
  %157 = add nsw i32 %156, 1
  store i32 %157, i32* %4, align 4
  br label %139

158:                                              ; preds = %139
  ret i32 0
}

declare dso_local i32 @gets(...) #1

; Function Attrs: nounwind readonly
declare dso_local i64 @strlen(i8*) #2

declare dso_local i32 @printf(i8*, ...) #1


!llvm.module.flags = !{!0}
!llvm.ident = !{!1}

!0 = !{i32 1, !"wchar_size", i32 4}
!1 = !{!"clang version 10.0.0-4ubuntu1 "}
